; Function Attrs: mustprogress nofree norecurse nosync nounwind willreturn memory(argmem: write) uwtable
define void @dt_bilateral_grid_size(ptr noundef writeonly captures(none) initializes((0, 24), (44, 60)) %0, i32 noundef %1, i32 noundef %2, float noundef %3, float noundef %4, float noundef %5) local_unnamed_addr #0 {
  %7 = fcmp reassoc nsz arcp contract afn olt float %4, 5.000000e-01
  %.0 = select nsz i1 %7, float 5.000000e-01, float %4
  %8 = sitofp i32 %1 to float
  %9 = fdiv reassoc nsz arcp contract afn float %8, %.0
  %10 = tail call reassoc nsz arcp contract afn float @llvm.round.f32(float %9)
  %11 = fptosi float %10 to i32
  %spec.select50 = tail call i32 @llvm.smin.i32(i32 %11, i32 3000)
  %12 = tail call i32 @llvm.smax.i32(i32 %spec.select50, i32 4)
  %13 = uitofp nneg i32 %12 to float
  %14 = sitofp i32 %2 to float
  %15 = fdiv reassoc nsz arcp contract afn float %14, %.0
  %16 = tail call reassoc nsz arcp contract afn float @llvm.round.f32(float %15)
  %17 = fptosi float %16 to i32
  %spec.select4851 = tail call i32 @llvm.smin.i32(i32 %17, i32 3000)
  %18 = tail call i32 @llvm.smax.i32(i32 %spec.select4851, i32 4)
  %19 = uitofp nneg i32 %18 to float
  %20 = fdiv reassoc nsz arcp contract afn float %3, %5
  %21 = tail call reassoc nsz arcp contract afn float @llvm.round.f32(float %20)
  %22 = fptosi float %21 to i32
  %spec.select4952 = tail call i32 @llvm.smin.i32(i32 %22, i32 50)
  %23 = tail call i32 @llvm.smax.i32(i32 %spec.select4952, i32 4)
  %24 = uitofp nneg i32 %23 to float
  %25 = fdiv reassoc nsz arcp contract afn float %14, %19
  %26 = fdiv reassoc nsz arcp contract afn float %8, %13
  %27 = fcmp reassoc nsz arcp contract afn ogt float %25, %26
  %. = select reassoc nsz arcp contract afn i1 %27, float %25, float %26
  %28 = getelementptr inbounds nuw i8, ptr %0, i64 44
  store float %., ptr %28, align 4, !tbaa !6
  %29 = fdiv reassoc nsz arcp contract afn float %3, %24
  %30 = getelementptr inbounds nuw i8, ptr %0, i64 48
  store float %29, ptr %30, align 16, !tbaa !15
  %31 = fdiv reassoc nsz arcp contract afn float 1.000000e+00, %.
  %32 = getelementptr inbounds nuw i8, ptr %0, i64 52
  store float %31, ptr %32, align 4, !tbaa !16
  %33 = fdiv reassoc nsz arcp contract afn float 1.000000e+00, %29
  %34 = getelementptr inbounds nuw i8, ptr %0, i64 56
  store float %33, ptr %34, align 8, !tbaa !17
  %35 = fmul reassoc nsz arcp contract afn float %31, %8
  %36 = tail call reassoc nsz arcp contract afn float @llvm.ceil.f32(float %35)
  %37 = fptosi float %36 to i32
  %38 = add nsw i32 %37, 1
  %39 = sext i32 %38 to i64
  store i64 %39, ptr %0, align 64, !tbaa !18
  %40 = fmul reassoc nsz arcp contract afn float %31, %14
  %41 = tail call reassoc nsz arcp contract afn float @llvm.ceil.f32(float %40)
  %42 = fptosi float %41 to i32
  %43 = add nsw i32 %42, 1
  %44 = sext i32 %43 to i64
  %45 = getelementptr inbounds nuw i8, ptr %0, i64 8
  store i64 %44, ptr %45, align 8, !tbaa !19
  %46 = fmul reassoc nsz arcp contract afn float %33, %3
  %47 = tail call reassoc nsz arcp contract afn float @llvm.ceil.f32(float %46)
  %48 = fptosi float %47 to i32
  %49 = add nsw i32 %48, 1
  %50 = sext i32 %49 to i64
  %51 = getelementptr inbounds nuw i8, ptr %0, i64 16
  store i64 %50, ptr %51, align 16, !tbaa !20
  ret void
}